; Function Attrs: nounwind sspstrong uwtable
define internal i64 @iseqw_to_binary(i32 noundef %0, ptr noundef readonly captures(none) %1, i64 noundef %2) #0 {
  %or.cond.i = icmp ugt i32 %0, 1
  br i1 %or.cond.i, label %4, label %rb_check_arity.exit

4:                                                ; preds = %3
  tail call void @rb_error_arity(i32 noundef %0, i32 noundef 0, i32 noundef 1) #21
  unreachable

rb_check_arity.exit:                              ; preds = %3
  %.not = icmp eq i32 %0, 0
  br i1 %.not, label %7, label %5

5:                                                ; preds = %rb_check_arity.exit
  %6 = load i64, ptr %1, align 8, !tbaa !42
  br label %7

7:                                                ; preds = %rb_check_arity.exit, %5
  %8 = phi i64 [ %6, %5 ], [ 4, %rb_check_arity.exit ]
  %9 = tail call ptr @rb_check_typeddata(i64 noundef %2, ptr noundef nonnull @iseqw_data_type) #20
  %10 = load ptr, ptr %9, align 8, !tbaa !244
  %11 = getelementptr inbounds nuw i8, ptr %10, i64 16
  %12 = load ptr, ptr %11, align 8, !tbaa !7
  %.not.i = icmp eq ptr %12, null
  br i1 %.not.i, label %13, label %14

13:                                               ; preds = %7
  tail call void @rb_ibf_load_iseq_complete(ptr noundef nonnull %10) #20
  %.pre.i = load ptr, ptr %11, align 8, !tbaa !7
  br label %14

14:                                               ; preds = %13, %7
  %15 = phi ptr [ %.pre.i, %13 ], [ %12, %7 ]
  %16 = getelementptr inbounds nuw i8, ptr %15, i64 80
  %17 = load i64, ptr %16, align 8, !tbaa !232
  %.not5.i = icmp eq i64 %17, 0
  br i1 %.not5.i, label %18, label %iseqw_check.exit

18:                                               ; preds = %14
  %19 = load i64, ptr @rb_eTypeError, align 8, !tbaa !42
  tail call void (i64, ptr, ...) @rb_raise(i64 noundef %19, ptr noundef nonnull @.str.158) #21
  unreachable

iseqw_check.exit:                                 ; preds = %14
  %20 = tail call i64 @rb_iseq_ibf_dump(ptr noundef nonnull %10, i64 noundef %8) #20
  ret i64 %20
}